; ModuleID = '2/1083.c'
source_filename = "2/1083.c"
target datalayout = "e-m:e-p270:32:32-p271:32:32-p272:64:64-i64:64-f80:128-n8:16:32:64-S128"
target triple = "x86_64-pc-linux-gnu"

%struct.author = type { i8, i32, [1000 x i32] }

@.str = private unnamed_addr constant [3 x i8] c"%d\00", align 1
@.str.1 = private unnamed_addr constant [6 x i8] c"%d %s\00", align 1
@.str.2 = private unnamed_addr constant [4 x i8] c"%c\0A\00", align 1
@.str.3 = private unnamed_addr constant [4 x i8] c"%d\0A\00", align 1

; Function Attrs: noinline nounwind uwtable
define dso_local i32 @cmp(i8* %0, i8* %1) #0 {
  %3 = alloca i8*, align 8
  %4 = alloca i8*, align 8
  %5 = alloca %struct.author*, align 8
  %6 = alloca %struct.author*, align 8
  store i8* %0, i8** %3, align 8
  store i8* %1, i8** %4, align 8
  %7 = load i8*, i8** %3, align 8
  %8 = bitcast i8* %7 to %struct.author*
  store %struct.author* %8, %struct.author** %5, align 8
  %9 = load i8*, i8** %4, align 8
  %10 = bitcast i8* %9 to %struct.author*
  store %struct.author* %10, %struct.author** %6, align 8
  %11 = load %struct.author*, %struct.author** %6, align 8
  %12 = getelementptr inbounds %struct.author, %struct.author* %11, i32 0, i32 1
  %13 = load i32, i32* %12, align 4
  %14 = load %struct.author*, %struct.author** %5, align 8
  %15 = getelementptr inbounds %struct.author, %struct.author* %14, i32 0, i32 1
  %16 = load i32, i32* %15, align 4
  %17 = sub nsw i32 %13, %16
  ret i32 %17
}

; Function Attrs: noinline nounwind uwtable
define dso_local i32 @main() #0 {
  %1 = alloca i32, align 4
  %2 = alloca i32, align 4
  %3 = alloca i32, align 4
  %4 = alloca i32, align 4
  %5 = alloca i32, align 4
  %6 = alloca i32, align 4
  %7 = alloca i32, align 4
  %8 = alloca [26 x %struct.author], align 16
  %9 = alloca i8, align 1
  %10 = alloca [26 x i8], align 16
  store i32 0, i32* %1, align 4
  store i32 0, i32* %2, align 4
  br label %11

11:                                               ; preds = %26, %0
  %12 = load i32, i32* %2, align 4
  %13 = icmp slt i32 %12, 26
  br i1 %13, label %14, label %29

14:                                               ; preds = %11
  %15 = load i32, i32* %2, align 4
  %16 = add nsw i32 65, %15
  %17 = trunc i32 %16 to i8
  %18 = load i32, i32* %2, align 4
  %19 = sext i32 %18 to i64
  %20 = getelementptr inbounds [26 x %struct.author], [26 x %struct.author]* %8, i64 0, i64 %19
  %21 = getelementptr inbounds %struct.author, %struct.author* %20, i32 0, i32 0
  store i8 %17, i8* %21, align 8
  %22 = load i32, i32* %2, align 4
  %23 = sext i32 %22 to i64
  %24 = getelementptr inbounds [26 x %struct.author], [26 x %struct.author]* %8, i64 0, i64 %23
  %25 = getelementptr inbounds %struct.author, %struct.author* %24, i32 0, i32 1
  store i32 0, i32* %25, align 4
  br label %26

26:                                               ; preds = %14
  %27 = load i32, i32* %2, align 4
  %28 = add nsw i32 %27, 1
  store i32 %28, i32* %2, align 4
  br label %11

29:                                               ; preds = %11
  %30 = call i32 (i8*, ...) @__isoc99_scanf(i8* getelementptr inbounds ([3 x i8], [3 x i8]* @.str, i64 0, i64 0), i32* %4)
  store i32 0, i32* %2, align 4
  br label %31

31:                                               ; preds = %74, %29
  %32 = load i32, i32* %2, align 4
  %33 = load i32, i32* %4, align 4
  %34 = icmp slt i32 %32, %33
  br i1 %34, label %35, label %77

35:                                               ; preds = %31
  %36 = getelementptr inbounds [26 x i8], [26 x i8]* %10, i64 0, i64 0
  %37 = call i32 (i8*, ...) @__isoc99_scanf(i8* getelementptr inbounds ([6 x i8], [6 x i8]* @.str.1, i64 0, i64 0), i32* %5, i8* %36)
  %38 = getelementptr inbounds [26 x i8], [26 x i8]* %10, i64 0, i64 0
  %39 = call i64 @strlen(i8* %38) #3
  %40 = trunc i64 %39 to i32
  store i32 %40, i32* %6, align 4
  store i32 0, i32* %3, align 4
  br label %41

41:                                               ; preds = %70, %35
  %42 = load i32, i32* %3, align 4
  %43 = load i32, i32* %6, align 4
  %44 = icmp slt i32 %42, %43
  br i1 %44, label %45, label %73

45:                                               ; preds = %41
  %46 = load i32, i32* %3, align 4
  %47 = sext i32 %46 to i64
  %48 = getelementptr inbounds [26 x i8], [26 x i8]* %10, i64 0, i64 %47
  %49 = load i8, i8* %48, align 1
  %50 = sext i8 %49 to i32
  %51 = sub nsw i32 %50, 65
  store i32 %51, i32* %7, align 4
  %52 = load i32, i32* %5, align 4
  %53 = load i32, i32* %7, align 4
  %54 = sext i32 %53 to i64
  %55 = getelementptr inbounds [26 x %struct.author], [26 x %struct.author]* %8, i64 0, i64 %54
  %56 = getelementptr inbounds %struct.author, %struct.author* %55, i32 0, i32 2
  %57 = load i32, i32* %7, align 4
  %58 = sext i32 %57 to i64
  %59 = getelementptr inbounds [26 x %struct.author], [26 x %struct.author]* %8, i64 0, i64 %58
  %60 = getelementptr inbounds %struct.author, %struct.author* %59, i32 0, i32 1
  %61 = load i32, i32* %60, align 4
  %62 = sext i32 %61 to i64
  %63 = getelementptr inbounds [1000 x i32], [1000 x i32]* %56, i64 0, i64 %62
  store i32 %52, i32* %63, align 4
  %64 = load i32, i32* %7, align 4
  %65 = sext i32 %64 to i64
  %66 = getelementptr inbounds [26 x %struct.author], [26 x %struct.author]* %8, i64 0, i64 %65
  %67 = getelementptr inbounds %struct.author, %struct.author* %66, i32 0, i32 1
  %68 = load i32, i32* %67, align 4
  %69 = add nsw i32 %68, 1
  store i32 %69, i32* %67, align 4
  br label %70

70:                                               ; preds = %45
  %71 = load i32, i32* %3, align 4
  %72 = add nsw i32 %71, 1
  store i32 %72, i32* %3, align 4
  br label %41

73:                                               ; preds = %41
  br label %74

74:                                               ; preds = %73
  %75 = load i32, i32* %2, align 4
  %76 = add nsw i32 %75, 1
  store i32 %76, i32* %2, align 4
  br label %31

77:                                               ; preds = %31
  %78 = getelementptr inbounds [26 x %struct.author], [26 x %struct.author]* %8, i64 0, i64 0
  %79 = bitcast %struct.author* %78 to i8*
  call void @qsort(i8* %79, i64 26, i64 4008, i32 (i8*, i8*)* @cmp)
  %80 = getelementptr inbounds [26 x %struct.author], [26 x %struct.author]* %8, i64 0, i64 0
  %81 = getelementptr inbounds %struct.author, %struct.author* %80, i32 0, i32 0
  %82 = load i8, i8* %81, align 16
  %83 = sext i8 %82 to i32
  %84 = call i32 (i8*, ...) @printf(i8* getelementptr inbounds ([4 x i8], [4 x i8]* @.str.2, i64 0, i64 0), i32 %83)
  %85 = getelementptr inbounds [26 x %struct.author], [26 x %struct.author]* %8, i64 0, i64 0
  %86 = getelementptr inbounds %struct.author, %struct.author* %85, i32 0, i32 1
  %87 = load i32, i32* %86, align 4
  %88 = call i32 (i8*, ...) @printf(i8* getelementptr inbounds ([4 x i8], [4 x i8]* @.str.3, i64 0, i64 0), i32 %87)
  store i32 0, i32* %2, align 4
  br label %89

89:                                               ; preds = %103, %77
  %90 = load i32, i32* %2, align 4
  %91 = getelementptr inbounds [26 x %struct.author], [26 x %struct.author]* %8, i64 0, i64 0
  %92 = getelementptr inbounds %struct.author, %struct.author* %91, i32 0, i32 1
  %93 = load i32, i32* %92, align 4
  %94 = icmp slt i32 %90, %93
  br i1 %94, label %95, label %106

95:                                               ; preds = %89
  %96 = getelementptr inbounds [26 x %struct.author], [26 x %struct.author]* %8, i64 0, i64 0
  %97 = getelementptr inbounds %struct.author, %struct.author* %96, i32 0, i32 2
  %98 = load i32, i32* %2, align 4
  %99 = sext i32 %98 to i64
  %100 = getelementptr inbounds [1000 x i32], [1000 x i32]* %97, i64 0, i64 %99
  %101 = load i32, i32* %100, align 4
  %102 = call i32 (i8*, ...) @printf(i8* getelementptr inbounds ([4 x i8], [4 x i8]* @.str.3, i64 0, i64 0), i32 %101)
  br label %103

103:                                              ; preds = %95
  %104 = load i32, i32* %2, align 4
  %105 = add nsw i32 %104, 1
  store i32 %105, i32* %2, align 4
  br label %89

106:                                              ; preds = %89
  %107 = load i32, i32* %1, align 4
  ret i32 %107
}

declare dso_local i32 @__isoc99_scanf(i8*, ...) #1

; Function Attrs: nounwind readonly
declare dso_local i64 @strlen(i8*) #2

declare dso_local void @qsort(i8*, i64, i64, i32 (i8*, i8*)*) #1

declare dso_local i32 @printf(i8*, ...) #1


!llvm.module.flags = !{!0}
!llvm.ident = !{!1}

!0 = !{i32 1, !"wchar_size", i32 4}
!1 = !{!"clang version 10.0.0-4ubuntu1 "}
